target datalayout = "e-m:e-p270:32:32-p271:32:32-p272:64:64-i64:64-i128:128-f80:128-n8:16:32:64-S128"
target triple = "x86_64-pc-linux-gnu"

@_ZTIN3ue218ResourceLimitErrorE = external constant ptr

; Function Attrs: mustprogress uwtable
define hidden noundef i32 @_ZN3ue210mmbit_sizeEj(i32 noundef %0) #0 personality ptr @__gxx_personality_v0 {
  %2 = alloca i32, align 4
  %3 = alloca i32, align 4
  %4 = alloca ptr, align 8
  %5 = alloca i32, align 4
  %6 = alloca i64, align 8
  %7 = alloca i64, align 8
  %8 = alloca i64, align 8
  store i32 %0, ptr %3, align 4
  %9 = load i32, ptr %3, align 4
  %10 = icmp ugt i32 %9, -2147483648
  br i1 %10, label %11, label %18

11:                                               ; preds = %1
  %12 = call ptr @__cxa_allocate_exception(i64 48) #18
  invoke void @_ZN3ue218ResourceLimitErrorC1Ev(ptr noundef nonnull align 8 dereferenceable(48) %12)
          to label %13 unwind label %14

13:                                               ; preds = %11
  call void @__cxa_throw(ptr %12, ptr @_ZTIN3ue218ResourceLimitErrorE, ptr @_ZN3ue218ResourceLimitErrorD1Ev) #19
  unreachable

14:                                               ; preds = %11
  %15 = landingpad { ptr, i32 }
          cleanup
  %16 = extractvalue { ptr, i32 } %15, 0
  store ptr %16, ptr %4, align 8
  %17 = extractvalue { ptr, i32 } %15, 1
  store i32 %17, ptr %5, align 4
  call void @__cxa_free_exception(ptr %12) #18
  br label %53

18:                                               ; preds = %1
  %19 = load i32, ptr %3, align 4
  %20 = icmp ule i32 %19, 256
  br i1 %20, label %21, label %26

21:                                               ; preds = %18
  %22 = load i32, ptr %3, align 4
  %23 = add i32 %22, 7
  %24 = and i32 %23, -8
  %25 = udiv i32 %24, 8
  store i32 %25, ptr %2, align 4
  br label %51

26:                                               ; preds = %18
  call void @llvm.lifetime.start.p0(i64 8, ptr %6) #18
  store i64 1, ptr %6, align 8
  call void @llvm.lifetime.start.p0(i64 8, ptr %7) #18
  store i64 0, ptr %7, align 8
  br label %27

27:                                               ; preds = %33, %26
  %28 = load i64, ptr %6, align 8
  %29 = mul i64 %28, 64
  %30 = load i32, ptr %3, align 4
  %31 = zext i32 %30 to i64
  %32 = icmp ult i64 %29, %31
  br i1 %32, label %33, label %39

33:                                               ; preds = %27
  %34 = load i64, ptr %6, align 8
  %35 = load i64, ptr %7, align 8
  %36 = add i64 %35, %34
  store i64 %36, ptr %7, align 8
  %37 = load i64, ptr %6, align 8
  %38 = shl i64 %37, 6
  store i64 %38, ptr %6, align 8
  br label %27, !llvm.loop !5

39:                                               ; preds = %27
  call void @llvm.lifetime.start.p0(i64 8, ptr %8) #18
  %40 = load i32, ptr %3, align 4
  %41 = zext i32 %40 to i64
  %42 = add i64 %41, 64
  %43 = sub i64 %42, 1
  %44 = udiv i64 %43, 64
  store i64 %44, ptr %8, align 8
  %45 = load i64, ptr %8, align 8
  %46 = load i64, ptr %7, align 8
  %47 = add i64 %46, %45
  store i64 %47, ptr %7, align 8
  %48 = load i64, ptr %7, align 8
  %49 = mul i64 %48, 8
  %50 = trunc i64 %49 to i32
  store i32 %50, ptr %2, align 4
  call void @llvm.lifetime.end.p0(i64 8, ptr %8) #18
  call void @llvm.lifetime.end.p0(i64 8, ptr %7) #18
  call void @llvm.lifetime.end.p0(i64 8, ptr %6) #18
  br label %51

51:                                               ; preds = %39, %21
  %52 = load i32, ptr %2, align 4
  ret i32 %52

53:                                               ; preds = %14
  %54 = load ptr, ptr %4, align 8
  %55 = load i32, ptr %5, align 4
  %56 = insertvalue { ptr, i32 } poison, ptr %54, 0
  %57 = insertvalue { ptr, i32 } %56, i32 %55, 1
  resume { ptr, i32 } %57
}