; Function Attrs: mustprogress uwtable
define hidden noundef range(i32 0, -7) i32 @_ZN3ue210mmbit_sizeEj(i32 noundef %0) local_unnamed_addr #0 personality ptr @__gxx_personality_v0 {
  %2 = icmp ugt i32 %0, -2147483648
  br i1 %2, label %3, label %8

3:                                                ; preds = %1
  %4 = tail call ptr @__cxa_allocate_exception(i64 48) #18
  invoke void @_ZN3ue218ResourceLimitErrorC1Ev(ptr noundef nonnull align 8 dereferenceable(48) %4)
          to label %5 unwind label %6

5:                                                ; preds = %3
  tail call void @__cxa_throw(ptr nonnull %4, ptr nonnull @_ZTIN3ue218ResourceLimitErrorE, ptr nonnull @_ZN3ue218ResourceLimitErrorD1Ev) #19
  unreachable

6:                                                ; preds = %3
  %7 = landingpad { ptr, i32 }
          cleanup
  tail call void @__cxa_free_exception(ptr nonnull %4) #18
  resume { ptr, i32 } %7

8:                                                ; preds = %1
  %9 = icmp ult i32 %0, 257
  br i1 %9, label %11, label %.preheader

.preheader:                                       ; preds = %8
  %10 = zext i32 %0 to i64
  br label %14

11:                                               ; preds = %8
  %12 = add nuw nsw i32 %0, 7
  %13 = lshr i32 %12, 3
  br label %23

14:                                               ; preds = %14, %.preheader
  %.015 = phi i64 [ %15, %14 ], [ 1, %.preheader ]
  %.014 = phi i64 [ %17, %14 ], [ 0, %.preheader ]
  %15 = shl nuw nsw i64 %.015, 6
  %16 = icmp samesign ult i64 %15, %10
  %17 = add i64 %.014, %.015
  br i1 %16, label %14, label %18, !llvm.loop !5

18:                                               ; preds = %14
  %19 = add nuw nsw i64 %10, 63
  %20 = lshr i64 %19, 6
  %21 = add i64 %.014, %20
  %.tr = trunc i64 %21 to i32
  %22 = shl i32 %.tr, 3
  br label %23

23:                                               ; preds = %18, %11
  %.0 = phi i32 [ %13, %11 ], [ %22, %18 ]
  ret i32 %.0
}